; Function Attrs: nounwind uwtable
define void @JNI_OnUnload(ptr noundef %0, ptr nocapture noundef readnone %1) local_unnamed_addr #0 {
  %3 = alloca ptr, align 8
  %4 = load ptr, ptr %0, align 8
  %5 = getelementptr inbounds i8, ptr %4, i64 48
  %6 = load ptr, ptr %5, align 8
  %7 = call i32 %6(ptr noundef nonnull %0, ptr noundef nonnull %3, i32 noundef 65538) #12
  %.not = icmp eq i32 %7, 0
  br i1 %.not, label %8, label %44

8:                                                ; preds = %2
  %9 = load ptr, ptr %3, align 8
  %10 = load ptr, ptr %9, align 8
  %11 = getelementptr inbounds i8, ptr %10, i64 176
  %12 = load ptr, ptr %11, align 8
  %13 = load ptr, ptr @CLS_Object, align 8
  call void %12(ptr noundef nonnull %9, ptr noundef %13) #12
  %14 = load ptr, ptr %3, align 8
  %15 = load ptr, ptr %14, align 8
  %16 = getelementptr inbounds i8, ptr %15, i64 176
  %17 = load ptr, ptr %16, align 8
  %18 = load ptr, ptr @CLS_String, align 8
  call void %17(ptr noundef nonnull %14, ptr noundef %18) #12
  %19 = load ptr, ptr %3, align 8
  %20 = load ptr, ptr %19, align 8
  %21 = getelementptr inbounds i8, ptr %20, i64 176
  %22 = load ptr, ptr %21, align 8
  %23 = load ptr, ptr @CLS_Oid, align 8
  call void %22(ptr noundef nonnull %19, ptr noundef %23) #12
  %24 = load ptr, ptr %3, align 8
  %25 = load ptr, ptr %24, align 8
  %26 = getelementptr inbounds i8, ptr %25, i64 176
  %27 = load ptr, ptr %26, align 8
  %28 = load ptr, ptr @CLS_GSSException, align 8
  call void %27(ptr noundef nonnull %24, ptr noundef %28) #12
  %29 = load ptr, ptr %3, align 8
  %30 = load ptr, ptr %29, align 8
  %31 = getelementptr inbounds i8, ptr %30, i64 176
  %32 = load ptr, ptr %31, align 8
  %33 = load ptr, ptr @CLS_GSSNameElement, align 8
  call void %32(ptr noundef nonnull %29, ptr noundef %33) #12
  %34 = load ptr, ptr %3, align 8
  %35 = load ptr, ptr %34, align 8
  %36 = getelementptr inbounds i8, ptr %35, i64 176
  %37 = load ptr, ptr %36, align 8
  %38 = load ptr, ptr @CLS_GSSCredElement, align 8
  call void %37(ptr noundef nonnull %34, ptr noundef %38) #12
  %39 = load ptr, ptr %3, align 8
  %40 = load ptr, ptr %39, align 8
  %41 = getelementptr inbounds i8, ptr %40, i64 176
  %42 = load ptr, ptr %41, align 8
  %43 = load ptr, ptr @CLS_SunNativeProvider, align 8
  call void %42(ptr noundef nonnull %39, ptr noundef %43) #12
  br label %44

44:                                               ; preds = %2, %8
  ret void
}